; Function Attrs: mustprogress nofree norecurse nosync nounwind willreturn memory(argmem: readwrite) uwtable
define hidden void @_ZN12old_intervalC2ER25scoped_dependency_managerIPvE(ptr noundef nonnull align 8 captures(none) dereferenceable(112) initializes((0, 12), (16, 20), (24, 36), (40, 52), (56, 60), (64, 76), (80, 90), (96, 112)) %0, ptr noundef nonnull align 8 dereferenceable(72) %1) unnamed_addr #7 align 2 personality ptr @__gxx_personality_v0 {
  store ptr %1, ptr %0, align 8, !tbaa !30
  %3 = getelementptr inbounds nuw i8, ptr %0, i64 8
  store i32 0, ptr %3, align 8, !tbaa !3
  %4 = getelementptr inbounds nuw i8, ptr %0, i64 16
  store i32 0, ptr %4, align 8, !tbaa !16
  %5 = getelementptr inbounds nuw i8, ptr %0, i64 20
  %6 = load i8, ptr %5, align 4
  %7 = and i8 %6, -4
  store i8 %7, ptr %5, align 4
  %8 = getelementptr inbounds nuw i8, ptr %0, i64 24
  store ptr null, ptr %8, align 8, !tbaa !20
  %9 = getelementptr inbounds nuw i8, ptr %0, i64 32
  store i32 1, ptr %9, align 8, !tbaa !16
  %10 = getelementptr inbounds nuw i8, ptr %0, i64 36
  %11 = load i8, ptr %10, align 4
  %12 = and i8 %11, -4
  store i8 %12, ptr %10, align 4
  %13 = getelementptr inbounds nuw i8, ptr %0, i64 40
  store ptr null, ptr %13, align 8, !tbaa !20
  %14 = getelementptr inbounds nuw i8, ptr %0, i64 48
  store i32 2, ptr %14, align 8, !tbaa !3
  %15 = getelementptr inbounds nuw i8, ptr %0, i64 56
  store i32 0, ptr %15, align 8, !tbaa !16
  %16 = getelementptr inbounds nuw i8, ptr %0, i64 60
  %17 = load i8, ptr %16, align 4
  %18 = and i8 %17, -4
  store i8 %18, ptr %16, align 4
  %19 = getelementptr inbounds nuw i8, ptr %0, i64 64
  store ptr null, ptr %19, align 8, !tbaa !20
  %20 = getelementptr inbounds nuw i8, ptr %0, i64 72
  store i32 1, ptr %20, align 8, !tbaa !16
  %21 = getelementptr inbounds nuw i8, ptr %0, i64 76
  %22 = load i8, ptr %21, align 4
  %23 = and i8 %22, -4
  store i8 %23, ptr %21, align 4
  %24 = getelementptr inbounds nuw i8, ptr %0, i64 80
  store ptr null, ptr %24, align 8, !tbaa !20
  %25 = getelementptr inbounds nuw i8, ptr %0, i64 88
  store i8 1, ptr %25, align 8, !tbaa !32
  %26 = getelementptr inbounds nuw i8, ptr %0, i64 89
  store i8 1, ptr %26, align 1, !tbaa !36
  %27 = getelementptr inbounds nuw i8, ptr %0, i64 96
  tail call void @llvm.memset.p0.i64(ptr noundef nonnull align 8 dereferenceable(16) %27, i8 0, i64 16, i1 false)
  ret void
}